; Function Attrs: mustprogress nofree norecurse nosync nounwind willreturn memory(read, inaccessiblemem: none) uwtable
define dso_local i8 @_ZNK4llvm18TargetLoweringBase20getPrefLoopAlignmentEPNS_11MachineLoopE(ptr nocapture noundef nonnull readonly align 8 dereferenceable(408123) %0, ptr nocapture readnone %1) unnamed_addr #10 align 2 {
  %3 = getelementptr inbounds nuw i8, ptr %0, i64 8
  %4 = load ptr, ptr %3, align 8
  %5 = getelementptr inbounds i8, ptr %4, i64 960
  %6 = load i32, ptr %5, align 8
  %.not = icmp eq i32 %6, 0
  %7 = getelementptr inbounds nuw i8, ptr %0, i64 68
  %8 = load i8, ptr %7, align 4
  %9 = zext i32 %6 to i64
  %10 = tail call range(i64 0, 65) i64 @llvm.ctlz.i64(i64 %9, i1 true)
  %11 = trunc nuw nsw i64 %10 to i8
  %12 = xor i8 %11, 63
  %.sroa.0.0 = select i1 %.not, i8 %8, i8 %12
  ret i8 %.sroa.0.0
}